target datalayout = "e-m:e-p270:32:32-p271:32:32-p272:64:64-i64:64-i128:128-f80:128-n8:16:32:64-S128"
target triple = "x86_64-pc-linux-gnu"

%class.duDisplayList = type <{ %struct.duDebugDraw, ptr, ptr, i32, i32, i32, float, i8, [7 x i8] }>
%struct.duDebugDraw = type { ptr }

; Function Attrs: mustprogress uwtable
define void @_ZN13duDisplayList4drawEP11duDebugDraw(ptr noundef nonnull align 8 dereferenceable(41) %0, ptr noundef %1) #2 align 2 {
  %3 = alloca ptr, align 8
  %4 = alloca ptr, align 8
  %5 = alloca i32, align 4
  store ptr %0, ptr %3, align 8
  store ptr %1, ptr %4, align 8
  %6 = load ptr, ptr %3, align 8
  %7 = load ptr, ptr %4, align 8
  %8 = icmp ne ptr %7, null
  br i1 %8, label %10, label %9

9:                                                ; preds = %2
  br label %61

10:                                               ; preds = %2
  %11 = getelementptr inbounds %class.duDisplayList, ptr %6, i32 0, i32 3
  %12 = load i32, ptr %11, align 8
  %13 = icmp ne i32 %12, 0
  br i1 %13, label %15, label %14

14:                                               ; preds = %10
  br label %61

15:                                               ; preds = %10
  %16 = load ptr, ptr %4, align 8
  %17 = getelementptr inbounds %class.duDisplayList, ptr %6, i32 0, i32 7
  %18 = load i8, ptr %17, align 8
  %19 = trunc i8 %18 to i1
  %20 = load ptr, ptr %16, align 8
  %21 = getelementptr inbounds ptr, ptr %20, i64 2
  %22 = load ptr, ptr %21, align 8
  call void %22(ptr noundef nonnull align 8 dereferenceable(8) %16, i1 noundef zeroext %19)
  %23 = load ptr, ptr %4, align 8
  %24 = getelementptr inbounds %class.duDisplayList, ptr %6, i32 0, i32 5
  %25 = load i32, ptr %24, align 8
  %26 = getelementptr inbounds %class.duDisplayList, ptr %6, i32 0, i32 6
  %27 = load float, ptr %26, align 4
  %28 = load ptr, ptr %23, align 8
  %29 = getelementptr inbounds ptr, ptr %28, i64 4
  %30 = load ptr, ptr %29, align 8
  call void %30(ptr noundef nonnull align 8 dereferenceable(8) %23, i32 noundef %25, float noundef %27)
  store i32 0, ptr %5, align 4
  br label %31

31:                                               ; preds = %53, %15
  %32 = load i32, ptr %5, align 4
  %33 = getelementptr inbounds %class.duDisplayList, ptr %6, i32 0, i32 3
  %34 = load i32, ptr %33, align 8
  %35 = icmp slt i32 %32, %34
  br i1 %35, label %36, label %56

36:                                               ; preds = %31
  %37 = load ptr, ptr %4, align 8
  %38 = getelementptr inbounds %class.duDisplayList, ptr %6, i32 0, i32 1
  %39 = load ptr, ptr %38, align 8
  %40 = load i32, ptr %5, align 4
  %41 = mul nsw i32 %40, 3
  %42 = sext i32 %41 to i64
  %43 = getelementptr inbounds float, ptr %39, i64 %42
  %44 = getelementptr inbounds %class.duDisplayList, ptr %6, i32 0, i32 2
  %45 = load ptr, ptr %44, align 8
  %46 = load i32, ptr %5, align 4
  %47 = sext i32 %46 to i64
  %48 = getelementptr inbounds i32, ptr %45, i64 %47
  %49 = load i32, ptr %48, align 4
  %50 = load ptr, ptr %37, align 8
  %51 = getelementptr inbounds ptr, ptr %50, i64 5
  %52 = load ptr, ptr %51, align 8
  call void %52(ptr noundef nonnull align 8 dereferenceable(8) %37, ptr noundef %43, i32 noundef %49)
  br label %53

53:                                               ; preds = %36
  %54 = load i32, ptr %5, align 4
  %55 = add nsw i32 %54, 1
  store i32 %55, ptr %5, align 4
  br label %31, !llvm.loop !18

56:                                               ; preds = %31
  %57 = load ptr, ptr %4, align 8
  %58 = load ptr, ptr %57, align 8
  %59 = getelementptr inbounds ptr, ptr %58, i64 9
  %60 = load ptr, ptr %59, align 8
  call void %60(ptr noundef nonnull align 8 dereferenceable(8) %57)
  br label %61

61:                                               ; preds = %56, %14, %9
  ret void
}